; Function Attrs: mustprogress uwtable
define noundef zeroext i1 @_ZN18OpenImageIO_v2_6_010ImageInput10read_imageENS_8TypeDescEPvlllPFbS2_fES2_(ptr noundef nonnull align 8 dereferenceable(184) %this, ptr nocapture noundef readonly %format, ptr noundef %data, i64 noundef %xstride, i64 noundef %ystride, i64 noundef %zstride, ptr noundef %progress_callback, ptr noundef %progress_callback_data) unnamed_addr #5 align 2 {
entry:
  %agg.tmp = alloca %"struct.OpenImageIO_v2_6_0::TypeDesc", align 4
  %vtable = load ptr, ptr %this, align 8
  %vfn = getelementptr inbounds i8, ptr %vtable, i64 104
  %0 = load ptr, ptr %vfn, align 8
  %call = tail call noundef i32 %0(ptr noundef nonnull align 8 dereferenceable(184) %this)
  %vtable2 = load ptr, ptr %this, align 8
  %vfn3 = getelementptr inbounds i8, ptr %vtable2, i64 112
  %1 = load ptr, ptr %vfn3, align 8
  %call4 = tail call noundef i32 %1(ptr noundef nonnull align 8 dereferenceable(184) %this)
  %2 = load i8, ptr %format, align 4
  store i8 %2, ptr %agg.tmp, align 4
  %aggregate.i = getelementptr inbounds i8, ptr %agg.tmp, i64 1
  %aggregate3.i = getelementptr inbounds i8, ptr %format, i64 1
  %3 = load i8, ptr %aggregate3.i, align 1
  store i8 %3, ptr %aggregate.i, align 1
  %vecsemantics.i = getelementptr inbounds i8, ptr %agg.tmp, i64 2
  %vecsemantics4.i = getelementptr inbounds i8, ptr %format, i64 2
  %4 = load i8, ptr %vecsemantics4.i, align 2
  store i8 %4, ptr %vecsemantics.i, align 2
  %reserved.i = getelementptr inbounds i8, ptr %agg.tmp, i64 3
  store i8 0, ptr %reserved.i, align 1
  %arraylen.i = getelementptr inbounds i8, ptr %agg.tmp, i64 4
  %arraylen5.i = getelementptr inbounds i8, ptr %format, i64 4
  %5 = load i32, ptr %arraylen5.i, align 4
  store i32 %5, ptr %arraylen.i, align 4
  %vtable5 = load ptr, ptr %this, align 8
  %vfn6 = getelementptr inbounds i8, ptr %vtable5, i64 160
  %6 = load ptr, ptr %vfn6, align 8
  %call7 = call noundef zeroext i1 %6(ptr noundef nonnull align 8 dereferenceable(184) %this, i32 noundef %call, i32 noundef %call4, i32 noundef 0, i32 noundef -1, ptr noundef nonnull %agg.tmp, ptr noundef %data, i64 noundef %xstride, i64 noundef %ystride, i64 noundef %zstride, ptr noundef %progress_callback, ptr noundef %progress_callback_data)
  ret i1 %call7
}